target datalayout = "e-m:e-p270:32:32-p271:32:32-p272:64:64-i64:64-i128:128-f80:128-n8:16:32:64-S128"
target triple = "x86_64-pc-linux-gnu"

%struct.drdynvc_pinfo_t = type { ptr }

@proto_rdp_drdynvc = internal global i32 0, align 4

; Function Attrs: null_pointer_is_valid sspstrong uwtable
define internal ptr @getDrDynPacketInfo(ptr noundef %0) #0 {
  %2 = alloca ptr, align 8
  %3 = alloca ptr, align 8
  %4 = alloca ptr, align 8
  %5 = alloca i32, align 4
  store ptr %0, ptr %3, align 8
  call void @llvm.lifetime.start.p0(i64 8, ptr %4) #11
  %6 = call ptr @wmem_file_scope()
  %7 = load ptr, ptr %3, align 8
  %8 = load i32, ptr @proto_rdp_drdynvc, align 4
  %9 = call ptr @p_get_proto_data(ptr noundef %6, ptr noundef %7, i32 noundef %8, i32 noundef 1)
  store ptr %9, ptr %4, align 8
  %10 = load ptr, ptr %4, align 8
  %11 = icmp ne ptr %10, null
  br i1 %11, label %12, label %14

12:                                               ; preds = %1
  %13 = load ptr, ptr %4, align 8
  store ptr %13, ptr %2, align 8
  store i32 1, ptr %5, align 4
  br label %26

14:                                               ; preds = %1
  %15 = call ptr @wmem_file_scope()
  %16 = call noalias ptr @wmem_alloc(ptr noundef %15, i64 noundef 8) #12
  store ptr %16, ptr %4, align 8
  %17 = call ptr @wmem_file_scope()
  %18 = call noalias ptr @wmem_tree_new(ptr noundef %17)
  %19 = load ptr, ptr %4, align 8
  %20 = getelementptr inbounds nuw %struct.drdynvc_pinfo_t, ptr %19, i32 0, i32 0
  store ptr %18, ptr %20, align 8
  %21 = call ptr @wmem_file_scope()
  %22 = load ptr, ptr %3, align 8
  %23 = load i32, ptr @proto_rdp_drdynvc, align 4
  %24 = load ptr, ptr %4, align 8
  call void @p_set_proto_data(ptr noundef %21, ptr noundef %22, i32 noundef %23, i32 noundef 1, ptr noundef %24)
  %25 = load ptr, ptr %4, align 8
  store ptr %25, ptr %2, align 8
  store i32 1, ptr %5, align 4
  br label %26

26:                                               ; preds = %14, %12
  call void @llvm.lifetime.end.p0(i64 8, ptr %4) #11
  %27 = load ptr, ptr %2, align 8
  ret ptr %27
}