; Function Attrs: null_pointer_is_valid sspstrong uwtable
define internal fastcc ptr @getDrDynPacketInfo(ptr noundef %0) unnamed_addr #0 {
  %2 = tail call ptr @wmem_file_scope()
  %3 = load i32, ptr @proto_rdp_drdynvc, align 4
  %4 = tail call ptr @p_get_proto_data(ptr noundef %2, ptr noundef %0, i32 noundef %3, i32 noundef 1)
  %.not = icmp eq ptr %4, null
  br i1 %.not, label %5, label %12

5:                                                ; preds = %1
  %6 = tail call ptr @wmem_file_scope()
  %7 = tail call noalias dereferenceable_or_null(8) ptr @wmem_alloc(ptr noundef %6, i64 noundef 8) #7
  %8 = tail call ptr @wmem_file_scope()
  %9 = tail call noalias ptr @wmem_tree_new(ptr noundef %8)
  store ptr %9, ptr %7, align 8
  %10 = tail call ptr @wmem_file_scope()
  %11 = load i32, ptr @proto_rdp_drdynvc, align 4
  tail call void @p_set_proto_data(ptr noundef %10, ptr noundef %0, i32 noundef %11, i32 noundef 1, ptr noundef %7)
  br label %12

12:                                               ; preds = %1, %5
  %.0 = phi ptr [ %7, %5 ], [ %4, %1 ]
  ret ptr %.0
}